; Function Attrs: mustprogress uwtable
define void @_ZNK10open_spiel9coin_game9CoinState19PrintCoinsCollectedERSo(ptr nocapture noundef nonnull readonly align 8 dereferenceable(288) %0, ptr noundef nonnull align 8 dereferenceable(8) %1) local_unnamed_addr #3 align 2 {
  %3 = tail call noundef nonnull align 8 dereferenceable(8) ptr @_ZStlsISt11char_traitsIcEERSt13basic_ostreamIcT_ES5_PKc(ptr noundef nonnull align 8 dereferenceable(8) %1, ptr noundef nonnull @.str.42)
  %4 = getelementptr inbounds nuw i8, ptr %0, i64 64
  %5 = load ptr, ptr %4, align 8
  %6 = getelementptr inbounds nuw i8, ptr %5, i64 296
  %7 = load i32, ptr %6, align 8
  %8 = icmp sgt i32 %7, 0
  br i1 %8, label %.lr.ph, label %._crit_edge

.lr.ph:                                           ; preds = %2, %.lr.ph
  %.01718 = phi i32 [ %13, %.lr.ph ], [ 0, %2 ]
  %9 = trunc i32 %.01718 to i8
  %10 = add i8 %9, 97
  %11 = tail call noundef nonnull align 8 dereferenceable(8) ptr @_ZStlsISt11char_traitsIcEERSt13basic_ostreamIcT_ES5_c(ptr noundef nonnull align 8 dereferenceable(8) %1, i8 noundef signext %10)
  %12 = tail call noundef nonnull align 8 dereferenceable(8) ptr @_ZStlsISt11char_traitsIcEERSt13basic_ostreamIcT_ES5_PKc(ptr noundef nonnull align 8 dereferenceable(8) %11, ptr noundef nonnull @.str.16)
  %13 = add nuw nsw i32 %.01718, 1
  %14 = load ptr, ptr %4, align 8
  %15 = getelementptr inbounds nuw i8, ptr %14, i64 296
  %16 = load i32, ptr %15, align 8
  %17 = icmp slt i32 %13, %16
  br i1 %17, label %.lr.ph, label %._crit_edge, !llvm.loop !18

._crit_edge:                                      ; preds = %.lr.ph, %2
  %18 = tail call noundef nonnull align 8 dereferenceable(8) ptr @_ZStlsISt11char_traitsIcEERSt13basic_ostreamIcT_ES5_PKc(ptr noundef nonnull align 8 dereferenceable(8) %1, ptr noundef nonnull @.str.23)
  %19 = getelementptr inbounds nuw i8, ptr %0, i64 28
  %20 = load i32, ptr %19, align 4
  %21 = icmp sgt i32 %20, 0
  br i1 %21, label %.lr.ph25, label %._crit_edge26

.lr.ph25:                                         ; preds = %._crit_edge
  %22 = getelementptr inbounds nuw i8, ptr %0, i64 264
  br label %23

23:                                               ; preds = %.lr.ph25, %._crit_edge22
  %.01623 = phi i32 [ 0, %.lr.ph25 ], [ %46, %._crit_edge22 ]
  %24 = tail call noundef nonnull align 8 dereferenceable(8) ptr @_ZStlsISt11char_traitsIcEERSt13basic_ostreamIcT_ES5_PKc(ptr noundef nonnull align 8 dereferenceable(8) %1, ptr noundef nonnull @.str.43)
  %25 = tail call noundef nonnull align 8 dereferenceable(8) ptr @_ZNSolsEi(ptr noundef nonnull align 8 dereferenceable(8) %24, i32 noundef %.01623)
  %26 = tail call noundef nonnull align 8 dereferenceable(8) ptr @_ZStlsISt11char_traitsIcEERSt13basic_ostreamIcT_ES5_PKc(ptr noundef nonnull align 8 dereferenceable(8) %25, ptr noundef nonnull @.str.16)
  %27 = load ptr, ptr %4, align 8
  %28 = getelementptr inbounds nuw i8, ptr %27, i64 296
  %29 = load i32, ptr %28, align 8
  %30 = icmp sgt i32 %29, 0
  br i1 %30, label %.lr.ph21, label %._crit_edge22

.lr.ph21:                                         ; preds = %23, %.lr.ph21
  %31 = phi i32 [ %43, %.lr.ph21 ], [ %29, %23 ]
  %.019 = phi i32 [ %40, %.lr.ph21 ], [ 0, %23 ]
  %32 = mul nsw i32 %31, %.01623
  %33 = add nsw i32 %32, %.019
  %34 = sext i32 %33 to i64
  %35 = load ptr, ptr %22, align 8
  %36 = getelementptr inbounds i32, ptr %35, i64 %34
  %37 = load i32, ptr %36, align 4
  %38 = tail call noundef nonnull align 8 dereferenceable(8) ptr @_ZNSolsEi(ptr noundef nonnull align 8 dereferenceable(8) %1, i32 noundef %37)
  %39 = tail call noundef nonnull align 8 dereferenceable(8) ptr @_ZStlsISt11char_traitsIcEERSt13basic_ostreamIcT_ES5_PKc(ptr noundef nonnull align 8 dereferenceable(8) %38, ptr noundef nonnull @.str.16)
  %40 = add nuw nsw i32 %.019, 1
  %41 = load ptr, ptr %4, align 8
  %42 = getelementptr inbounds nuw i8, ptr %41, i64 296
  %43 = load i32, ptr %42, align 8
  %44 = icmp slt i32 %40, %43
  br i1 %44, label %.lr.ph21, label %._crit_edge22, !llvm.loop !19

._crit_edge22:                                    ; preds = %.lr.ph21, %23
  %45 = tail call noundef nonnull align 8 dereferenceable(8) ptr @_ZStlsISt11char_traitsIcEERSt13basic_ostreamIcT_ES5_PKc(ptr noundef nonnull align 8 dereferenceable(8) %1, ptr noundef nonnull @.str.23)
  %46 = add nuw nsw i32 %.01623, 1
  %47 = load i32, ptr %19, align 4
  %48 = icmp slt i32 %46, %47
  br i1 %48, label %23, label %._crit_edge26, !llvm.loop !20

._crit_edge26:                                    ; preds = %._crit_edge22, %._crit_edge
  ret void
}